target datalayout = "e-m:e-p270:32:32-p271:32:32-p272:64:64-i64:64-i128:128-f80:128-n8:16:32:64-S128"
target triple = "x86_64-pc-linux-gnu"

%struct.UCharIterator = type { ptr, i32, i32, i32, i32, i32, ptr, ptr, ptr, ptr, ptr, ptr, ptr, ptr, ptr, ptr }

; Function Attrs: mustprogress uwtable
define i32 @uiter_previous32_77(ptr noundef %0) #0 {
  %2 = alloca ptr, align 8
  %3 = alloca i32, align 4
  %4 = alloca i32, align 4
  store ptr %0, ptr %2, align 8, !tbaa !3
  call void @llvm.lifetime.start.p0(i64 4, ptr %3) #8
  call void @llvm.lifetime.start.p0(i64 4, ptr %4) #8
  %5 = load ptr, ptr %2, align 8, !tbaa !3
  %6 = getelementptr inbounds nuw %struct.UCharIterator, ptr %5, i32 0, i32 12
  %7 = load ptr, ptr %6, align 8, !tbaa !31
  %8 = load ptr, ptr %2, align 8, !tbaa !3
  %9 = call noundef i32 %7(ptr noundef %8)
  store i32 %9, ptr %3, align 4, !tbaa !10
  %10 = load i32, ptr %3, align 4, !tbaa !10
  %11 = and i32 %10, -1024
  %12 = icmp eq i32 %11, 56320
  br i1 %12, label %13, label %38

13:                                               ; preds = %1
  %14 = load ptr, ptr %2, align 8, !tbaa !3
  %15 = getelementptr inbounds nuw %struct.UCharIterator, ptr %14, i32 0, i32 12
  %16 = load ptr, ptr %15, align 8, !tbaa !31
  %17 = load ptr, ptr %2, align 8, !tbaa !3
  %18 = call noundef i32 %16(ptr noundef %17)
  store i32 %18, ptr %4, align 4, !tbaa !10
  %19 = and i32 %18, -1024
  %20 = icmp eq i32 %19, 55296
  br i1 %20, label %21, label %27

21:                                               ; preds = %13
  %22 = load i32, ptr %4, align 4, !tbaa !10
  %23 = shl i32 %22, 10
  %24 = load i32, ptr %3, align 4, !tbaa !10
  %25 = add nsw i32 %23, %24
  %26 = sub nsw i32 %25, 56613888
  store i32 %26, ptr %3, align 4, !tbaa !10
  br label %37

27:                                               ; preds = %13
  %28 = load i32, ptr %4, align 4, !tbaa !10
  %29 = icmp sge i32 %28, 0
  br i1 %29, label %30, label %36

30:                                               ; preds = %27
  %31 = load ptr, ptr %2, align 8, !tbaa !3
  %32 = getelementptr inbounds nuw %struct.UCharIterator, ptr %31, i32 0, i32 7
  %33 = load ptr, ptr %32, align 8, !tbaa !30
  %34 = load ptr, ptr %2, align 8, !tbaa !3
  %35 = call noundef i32 %33(ptr noundef %34, i32 noundef 1, i32 noundef 1)
  br label %36

36:                                               ; preds = %30, %27
  br label %37

37:                                               ; preds = %36, %21
  br label %38

38:                                               ; preds = %37, %1
  %39 = load i32, ptr %3, align 4, !tbaa !10
  call void @llvm.lifetime.end.p0(i64 4, ptr %4) #8
  call void @llvm.lifetime.end.p0(i64 4, ptr %3) #8
  ret i32 %39
}